target datalayout = "e-m:e-p270:32:32-p271:32:32-p272:64:64-i64:64-i128:128-f80:128-n8:16:32:64-S128"
target triple = "x86_64-pc-linux-gnu"

%struct.SQLFunctionParseInfo = type { ptr, i32, ptr, ptr, i32 }
%struct.ParseState = type { ptr, ptr, i32, i32, ptr, ptr, ptr, ptr, ptr, ptr, i8, ptr, ptr, ptr, ptr, ptr, ptr, i8, ptr, i32, i32, ptr, ptr, i8, i8, ptr, i8, i8, i8, i8, i8, ptr, ptr, ptr, ptr, ptr, ptr }
%union.ListCell = type { ptr }
%struct.ColumnRef = type { i32, ptr, i32 }
%struct.Node = type { i32 }
%struct.String = type { i32, ptr }
%struct.List = type { i32, i32, i32, ptr, [0 x %union.ListCell] }

; Function Attrs: inlinehint nounwind uwtable
define internal ptr @list_nth_cell(ptr noundef %0, i32 noundef %1) #2 {
  %3 = alloca ptr, align 8
  %4 = alloca i32, align 4
  store ptr %0, ptr %3, align 8
  store i32 %1, ptr %4, align 4
  %5 = load ptr, ptr %3, align 8
  %6 = getelementptr inbounds nuw %struct.List, ptr %5, i32 0, i32 3
  %7 = load ptr, ptr %6, align 8
  %8 = load i32, ptr %4, align 4
  %9 = sext i32 %8 to i64
  %10 = getelementptr inbounds %union.ListCell, ptr %7, i64 %9
  ret ptr %10
}

; Function Attrs: inlinehint nounwind uwtable
define internal ptr @list_last_cell(ptr noundef %0) #2 {
  %2 = alloca ptr, align 8
  store ptr %0, ptr %2, align 8
  %3 = load ptr, ptr %2, align 8
  %4 = getelementptr inbounds nuw %struct.List, ptr %3, i32 0, i32 3
  %5 = load ptr, ptr %4, align 8
  %6 = load ptr, ptr %2, align 8
  %7 = getelementptr inbounds nuw %struct.List, ptr %6, i32 0, i32 1
  %8 = load i32, ptr %7, align 4
  %9 = sub i32 %8, 1
  %10 = sext i32 %9 to i64
  %11 = getelementptr inbounds %union.ListCell, ptr %5, i64 %10
  ret ptr %11
}

; Function Attrs: inlinehint nounwind uwtable
define internal i32 @list_length(ptr noundef %0) #2 {
  %2 = alloca ptr, align 8
  store ptr %0, ptr %2, align 8
  %3 = load ptr, ptr %2, align 8
  %4 = icmp ne ptr %3, null
  br i1 %4, label %5, label %9

5:                                                ; preds = %1
  %6 = load ptr, ptr %2, align 8
  %7 = getelementptr inbounds nuw %struct.List, ptr %6, i32 0, i32 1
  %8 = load i32, ptr %7, align 4
  br label %10

9:                                                ; preds = %1
  br label %10

10:                                               ; preds = %9, %5
  %11 = phi i32 [ %8, %5 ], [ 0, %9 ]
  ret i32 %11
}

; Function Attrs: nounwind uwtable
define internal ptr @sql_fn_post_column_ref(ptr noundef %0, ptr noundef %1, ptr noundef %2) #0 {
  %4 = alloca ptr, align 8
  %5 = alloca ptr, align 8
  %6 = alloca ptr, align 8
  %7 = alloca ptr, align 8
  %8 = alloca ptr, align 8
  %9 = alloca i32, align 4
  %10 = alloca ptr, align 8
  %11 = alloca ptr, align 8
  %12 = alloca ptr, align 8
  %13 = alloca ptr, align 8
  %14 = alloca ptr, align 8
  %15 = alloca i32, align 4
  %16 = alloca %union.ListCell, align 8
  %17 = alloca %union.ListCell, align 8
  store ptr %0, ptr %5, align 8
  store ptr %1, ptr %6, align 8
  store ptr %2, ptr %7, align 8
  call void @llvm.lifetime.start.p0(i64 8, ptr %8) #8
  %18 = load ptr, ptr %5, align 8
  %19 = getelementptr inbounds nuw %struct.ParseState, ptr %18, i32 0, i32 36
  %20 = load ptr, ptr %19, align 8
  store ptr %20, ptr %8, align 8
  call void @llvm.lifetime.start.p0(i64 4, ptr %9) #8
  call void @llvm.lifetime.start.p0(i64 8, ptr %10) #8
  call void @llvm.lifetime.start.p0(i64 8, ptr %11) #8
  store ptr null, ptr %11, align 8
  call void @llvm.lifetime.start.p0(i64 8, ptr %12) #8
  call void @llvm.lifetime.start.p0(i64 8, ptr %13) #8
  store ptr null, ptr %13, align 8
  call void @llvm.lifetime.start.p0(i64 8, ptr %14) #8
  %21 = load ptr, ptr %7, align 8
  %22 = icmp ne ptr %21, null
  br i1 %22, label %23, label %24

23:                                               ; preds = %3
  store ptr null, ptr %4, align 8
  store i32 1, ptr %15, align 4
  br label %149

24:                                               ; preds = %3
  %25 = load ptr, ptr %6, align 8
  %26 = getelementptr inbounds nuw %struct.ColumnRef, ptr %25, i32 0, i32 1
  %27 = load ptr, ptr %26, align 8
  %28 = call i32 @list_length(ptr noundef %27)
  store i32 %28, ptr %9, align 4
  %29 = load i32, ptr %9, align 4
  %30 = icmp sgt i32 %29, 3
  br i1 %30, label %31, label %32

31:                                               ; preds = %24
  store ptr null, ptr %4, align 8
  store i32 1, ptr %15, align 4
  br label %149

32:                                               ; preds = %24
  %33 = load ptr, ptr %6, align 8
  %34 = getelementptr inbounds nuw %struct.ColumnRef, ptr %33, i32 0, i32 1
  %35 = load ptr, ptr %34, align 8
  %36 = call ptr @list_last_cell(ptr noundef %35)
  %37 = load ptr, ptr %36, align 8
  %38 = getelementptr inbounds nuw %struct.Node, ptr %37, i32 0, i32 0
  %39 = load i32, ptr %38, align 4
  %40 = icmp eq i32 %39, 77
  br i1 %40, label %41, label %44

41:                                               ; preds = %32
  %42 = load i32, ptr %9, align 4
  %43 = add i32 %42, -1
  store i32 %43, ptr %9, align 4
  br label %44

44:                                               ; preds = %41, %32
  %45 = load ptr, ptr %6, align 8
  %46 = getelementptr inbounds nuw %struct.ColumnRef, ptr %45, i32 0, i32 1
  %47 = load ptr, ptr %46, align 8
  %48 = call ptr @list_nth_cell(ptr noundef %47, i32 noundef 0)
  %49 = load ptr, ptr %48, align 8
  store ptr %49, ptr %10, align 8
  %50 = load ptr, ptr %10, align 8
  %51 = getelementptr inbounds nuw %struct.String, ptr %50, i32 0, i32 1
  %52 = load ptr, ptr %51, align 8
  store ptr %52, ptr %12, align 8
  %53 = load i32, ptr %9, align 4
  %54 = icmp sgt i32 %53, 1
  br i1 %54, label %55, label %64

55:                                               ; preds = %44
  %56 = load ptr, ptr %6, align 8
  %57 = getelementptr inbounds nuw %struct.ColumnRef, ptr %56, i32 0, i32 1
  %58 = load ptr, ptr %57, align 8
  %59 = call ptr @list_nth_cell(ptr noundef %58, i32 noundef 1)
  %60 = load ptr, ptr %59, align 8
  store ptr %60, ptr %11, align 8
  %61 = load ptr, ptr %11, align 8
  %62 = getelementptr inbounds nuw %struct.String, ptr %61, i32 0, i32 1
  %63 = load ptr, ptr %62, align 8
  store ptr %63, ptr %13, align 8
  br label %64

64:                                               ; preds = %55, %44
  %65 = load i32, ptr %9, align 4
  %66 = icmp eq i32 %65, 3
  br i1 %66, label %67, label %87

67:                                               ; preds = %64
  %68 = load ptr, ptr %12, align 8
  %69 = load ptr, ptr %8, align 8
  %70 = getelementptr inbounds nuw %struct.SQLFunctionParseInfo, ptr %69, i32 0, i32 0
  %71 = load ptr, ptr %70, align 8
  %72 = call i32 @strcmp(ptr noundef %68, ptr noundef %71) #10
  %73 = icmp ne i32 %72, 0
  br i1 %73, label %74, label %75

74:                                               ; preds = %67
  store ptr null, ptr %4, align 8
  store i32 1, ptr %15, align 4
  br label %149

75:                                               ; preds = %67
  %76 = load ptr, ptr %8, align 8
  %77 = load ptr, ptr %13, align 8
  %78 = load ptr, ptr %6, align 8
  %79 = getelementptr inbounds nuw %struct.ColumnRef, ptr %78, i32 0, i32 2
  %80 = load i32, ptr %79, align 8
  %81 = call ptr @sql_fn_resolve_param_name(ptr noundef %76, ptr noundef %77, i32 noundef %80)
  store ptr %81, ptr %14, align 8
  %82 = load ptr, ptr %6, align 8
  %83 = getelementptr inbounds nuw %struct.ColumnRef, ptr %82, i32 0, i32 1
  %84 = load ptr, ptr %83, align 8
  %85 = call ptr @list_nth_cell(ptr noundef %84, i32 noundef 2)
  %86 = load ptr, ptr %85, align 8
  store ptr %86, ptr %11, align 8
  br label %123

87:                                               ; preds = %64
  %88 = load i32, ptr %9, align 4
  %89 = icmp eq i32 %88, 2
  br i1 %89, label %90, label %115

90:                                               ; preds = %87
  %91 = load ptr, ptr %12, align 8
  %92 = load ptr, ptr %8, align 8
  %93 = getelementptr inbounds nuw %struct.SQLFunctionParseInfo, ptr %92, i32 0, i32 0
  %94 = load ptr, ptr %93, align 8
  %95 = call i32 @strcmp(ptr noundef %91, ptr noundef %94) #10
  %96 = icmp eq i32 %95, 0
  br i1 %96, label %97, label %115

97:                                               ; preds = %90
  %98 = load ptr, ptr %8, align 8
  %99 = load ptr, ptr %13, align 8
  %100 = load ptr, ptr %6, align 8
  %101 = getelementptr inbounds nuw %struct.ColumnRef, ptr %100, i32 0, i32 2
  %102 = load i32, ptr %101, align 8
  %103 = call ptr @sql_fn_resolve_param_name(ptr noundef %98, ptr noundef %99, i32 noundef %102)
  store ptr %103, ptr %14, align 8
  %104 = load ptr, ptr %14, align 8
  %105 = icmp ne ptr %104, null
  br i1 %105, label %106, label %107

106:                                              ; preds = %97
  store ptr null, ptr %11, align 8
  br label %114

107:                                              ; preds = %97
  %108 = load ptr, ptr %8, align 8
  %109 = load ptr, ptr %12, align 8
  %110 = load ptr, ptr %6, align 8
  %111 = getelementptr inbounds nuw %struct.ColumnRef, ptr %110, i32 0, i32 2
  %112 = load i32, ptr %111, align 8
  %113 = call ptr @sql_fn_resolve_param_name(ptr noundef %108, ptr noundef %109, i32 noundef %112)
  store ptr %113, ptr %14, align 8
  br label %114

114:                                              ; preds = %107, %106
  br label %122

115:                                              ; preds = %90, %87
  %116 = load ptr, ptr %8, align 8
  %117 = load ptr, ptr %12, align 8
  %118 = load ptr, ptr %6, align 8
  %119 = getelementptr inbounds nuw %struct.ColumnRef, ptr %118, i32 0, i32 2
  %120 = load i32, ptr %119, align 8
  %121 = call ptr @sql_fn_resolve_param_name(ptr noundef %116, ptr noundef %117, i32 noundef %120)
  store ptr %121, ptr %14, align 8
  br label %122

122:                                              ; preds = %115, %114
  br label %123

123:                                              ; preds = %122, %75
  %124 = load ptr, ptr %14, align 8
  %125 = icmp ne ptr %124, null
  br i1 %125, label %127, label %126

126:                                              ; preds = %123
  store ptr null, ptr %4, align 8
  store i32 1, ptr %15, align 4
  br label %149

127:                                              ; preds = %123
  %128 = load ptr, ptr %11, align 8
  %129 = icmp ne ptr %128, null
  br i1 %129, label %130, label %147

130:                                              ; preds = %127
  %131 = load ptr, ptr %5, align 8
  %132 = load ptr, ptr %11, align 8
  store ptr %132, ptr %16, align 8
  %133 = getelementptr inbounds nuw %union.ListCell, ptr %16, i32 0, i32 0
  %134 = load ptr, ptr %133, align 8
  %135 = call ptr @list_make1_impl(i32 noundef 1, ptr %134)
  %136 = load ptr, ptr %14, align 8
  store ptr %136, ptr %17, align 8
  %137 = getelementptr inbounds nuw %union.ListCell, ptr %17, i32 0, i32 0
  %138 = load ptr, ptr %137, align 8
  %139 = call ptr @list_make1_impl(i32 noundef 1, ptr %138)
  %140 = load ptr, ptr %5, align 8
  %141 = getelementptr inbounds nuw %struct.ParseState, ptr %140, i32 0, i32 31
  %142 = load ptr, ptr %141, align 8
  %143 = load ptr, ptr %6, align 8
  %144 = getelementptr inbounds nuw %struct.ColumnRef, ptr %143, i32 0, i32 2
  %145 = load i32, ptr %144, align 8
  %146 = call ptr @ParseFuncOrColumn(ptr noundef %131, ptr noundef %135, ptr noundef %139, ptr noundef %142, ptr noundef null, i1 noundef zeroext false, i32 noundef %145)
  store ptr %146, ptr %14, align 8
  br label %147

147:                                              ; preds = %130, %127
  %148 = load ptr, ptr %14, align 8
  store ptr %148, ptr %4, align 8
  store i32 1, ptr %15, align 4
  br label %149

149:                                              ; preds = %147, %126, %74, %31, %23
  call void @llvm.lifetime.end.p0(i64 8, ptr %14) #8
  call void @llvm.lifetime.end.p0(i64 8, ptr %13) #8
  call void @llvm.lifetime.end.p0(i64 8, ptr %12) #8
  call void @llvm.lifetime.end.p0(i64 8, ptr %11) #8
  call void @llvm.lifetime.end.p0(i64 8, ptr %10) #8
  call void @llvm.lifetime.end.p0(i64 4, ptr %9) #8
  call void @llvm.lifetime.end.p0(i64 8, ptr %8) #8
  %150 = load ptr, ptr %4, align 8
  ret ptr %150
}