; Function Attrs: nounwind uwtable
define internal ptr @sql_fn_post_column_ref(ptr noundef %0, ptr noundef readonly captures(none) %1, ptr noundef readnone captures(address_is_null) %2) #0 {
  %4 = getelementptr inbounds nuw i8, ptr %0, i64 232
  %5 = load ptr, ptr %4, align 8
  %.not = icmp eq ptr %2, null
  br i1 %.not, label %6, label %sql_fn_resolve_param_name.exit68.thread92

6:                                                ; preds = %3
  %7 = getelementptr inbounds nuw i8, ptr %1, i64 8
  %8 = load ptr, ptr %7, align 8
  %.not.i = icmp eq ptr %8, null
  br i1 %.not.i, label %.list_length.exit.thread_crit_edge, label %list_length.exit

.list_length.exit.thread_crit_edge:               ; preds = %6
  %.val.pre = load i32, ptr inttoptr (i64 4 to ptr), align 4
  br label %list_length.exit.thread

list_length.exit:                                 ; preds = %6
  %9 = getelementptr inbounds nuw i8, ptr %8, i64 4
  %10 = load i32, ptr %9, align 4
  %11 = icmp sgt i32 %10, 3
  br i1 %11, label %sql_fn_resolve_param_name.exit68.thread92, label %list_length.exit.thread

list_length.exit.thread:                          ; preds = %.list_length.exit.thread_crit_edge, %list_length.exit
  %.val = phi i32 [ %10, %list_length.exit ], [ %.val.pre, %.list_length.exit.thread_crit_edge ]
  %12 = phi i32 [ %10, %list_length.exit ], [ 0, %.list_length.exit.thread_crit_edge ]
  %13 = getelementptr i8, ptr %8, i64 16
  %.val51 = load ptr, ptr %13, align 8
  %14 = add i32 %.val, -1
  %15 = sext i32 %14 to i64
  %16 = getelementptr inbounds %union.ListCell, ptr %.val51, i64 %15
  %17 = load ptr, ptr %16, align 8
  %18 = load i32, ptr %17, align 4
  %19 = icmp eq i32 %18, 77
  %20 = sext i1 %19 to i32
  %spec.select = add i32 %12, %20
  %21 = load ptr, ptr %.val51, align 8
  %22 = getelementptr inbounds nuw i8, ptr %21, i64 8
  %23 = load ptr, ptr %22, align 8
  %24 = icmp sgt i32 %spec.select, 1
  br i1 %24, label %25, label %30

25:                                               ; preds = %list_length.exit.thread
  %26 = getelementptr inbounds nuw i8, ptr %.val51, i64 8
  %27 = load ptr, ptr %26, align 8
  %28 = getelementptr inbounds nuw i8, ptr %27, i64 8
  %29 = load ptr, ptr %28, align 8
  br label %30

30:                                               ; preds = %25, %list_length.exit.thread
  %.043 = phi ptr [ %27, %25 ], [ null, %list_length.exit.thread ]
  %.042 = phi ptr [ %29, %25 ], [ null, %list_length.exit.thread ]
  switch i32 %spec.select, label %109 [
    i32 3, label %31
    i32 2, label %71
  ]

31:                                               ; preds = %30
  %32 = load ptr, ptr %5, align 8
  %33 = tail call i32 @strcmp(ptr noundef nonnull dereferenceable(1) %23, ptr noundef nonnull dereferenceable(1) %32) #13
  %.not48 = icmp eq i32 %33, 0
  br i1 %.not48, label %34, label %sql_fn_resolve_param_name.exit68.thread92

34:                                               ; preds = %31
  %35 = getelementptr inbounds nuw i8, ptr %1, i64 16
  %36 = load i32, ptr %35, align 8
  %37 = getelementptr inbounds nuw i8, ptr %5, i64 24
  %38 = load ptr, ptr %37, align 8
  %39 = icmp eq ptr %38, null
  br i1 %39, label %sql_fn_resolve_param_name.exit, label %.preheader.i

.preheader.i:                                     ; preds = %34
  %40 = getelementptr inbounds nuw i8, ptr %5, i64 8
  %41 = load i32, ptr %40, align 8
  %42 = icmp sgt i32 %41, 0
  br i1 %42, label %.lr.ph.preheader.i, label %sql_fn_resolve_param_name.exit

.lr.ph.preheader.i:                               ; preds = %.preheader.i
  %wide.trip.count.i = zext nneg i32 %41 to i64
  br label %.lr.ph.i

.lr.ph.i:                                         ; preds = %66, %.lr.ph.preheader.i
  %indvars.iv.i = phi i64 [ 0, %.lr.ph.preheader.i ], [ %indvars.iv.next.i, %66 ]
  %43 = getelementptr inbounds nuw ptr, ptr %38, i64 %indvars.iv.i
  %44 = load ptr, ptr %43, align 8
  %.not.i55 = icmp eq ptr %44, null
  br i1 %.not.i55, label %66, label %45

45:                                               ; preds = %.lr.ph.i
  %46 = tail call i32 @strcmp(ptr noundef nonnull dereferenceable(1) %44, ptr noundef nonnull readonly dereferenceable(1) %.042) #13
  %47 = icmp eq i32 %46, 0
  br i1 %47, label %48, label %66

48:                                               ; preds = %45
  %49 = trunc nuw nsw i64 %indvars.iv.i to i32
  %50 = add nuw nsw i32 %49, 1
  %51 = tail call noundef ptr @palloc0(i64 noundef 28) #11
  store i32 8, ptr %51, align 4
  %52 = getelementptr inbounds nuw i8, ptr %51, i64 4
  store i32 0, ptr %52, align 4
  %53 = getelementptr inbounds nuw i8, ptr %51, i64 8
  store i32 %50, ptr %53, align 4
  %54 = getelementptr inbounds nuw i8, ptr %5, i64 16
  %55 = load ptr, ptr %54, align 8
  %56 = getelementptr inbounds nuw i32, ptr %55, i64 %indvars.iv.i
  %57 = load i32, ptr %56, align 4
  %58 = getelementptr inbounds nuw i8, ptr %51, i64 12
  store i32 %57, ptr %58, align 4
  %59 = getelementptr inbounds nuw i8, ptr %51, i64 16
  store i32 -1, ptr %59, align 4
  %60 = tail call i32 @get_typcollation(i32 noundef %57) #11
  %61 = getelementptr inbounds nuw i8, ptr %51, i64 20
  store i32 %60, ptr %61, align 4
  %62 = getelementptr inbounds nuw i8, ptr %51, i64 24
  store i32 %36, ptr %62, align 4
  %63 = getelementptr inbounds nuw i8, ptr %5, i64 32
  %64 = load i32, ptr %63, align 8
  %.not.i.i = icmp eq i32 %64, 0
  %.not15.i.i = icmp eq i32 %60, 0
  %or.cond.i.i = select i1 %.not.i.i, i1 true, i1 %.not15.i.i
  br i1 %or.cond.i.i, label %sql_fn_resolve_param_name.exit, label %65

65:                                               ; preds = %48
  store i32 %64, ptr %61, align 4
  br label %sql_fn_resolve_param_name.exit

66:                                               ; preds = %45, %.lr.ph.i
  %indvars.iv.next.i = add nuw nsw i64 %indvars.iv.i, 1
  %exitcond.not.i = icmp eq i64 %indvars.iv.next.i, %wide.trip.count.i
  br i1 %exitcond.not.i, label %sql_fn_resolve_param_name.exit, label %.lr.ph.i, !llvm.loop !8

sql_fn_resolve_param_name.exit:                   ; preds = %66, %34, %.preheader.i, %48, %65
  %.012.i = phi ptr [ null, %34 ], [ %51, %48 ], [ %51, %65 ], [ null, %.preheader.i ], [ null, %66 ]
  %67 = load ptr, ptr %7, align 8
  %68 = getelementptr i8, ptr %67, i64 16
  %.val54 = load ptr, ptr %68, align 8
  %69 = getelementptr inbounds nuw i8, ptr %.val54, i64 16
  %70 = load ptr, ptr %69, align 8
  br label %sql_fn_resolve_param_name.exit68

71:                                               ; preds = %30
  %72 = load ptr, ptr %5, align 8
  %73 = tail call i32 @strcmp(ptr noundef nonnull dereferenceable(1) %23, ptr noundef nonnull dereferenceable(1) %72) #13
  %74 = icmp eq i32 %73, 0
  br i1 %74, label %75, label %109

75:                                               ; preds = %71
  %76 = getelementptr inbounds nuw i8, ptr %1, i64 16
  %77 = load i32, ptr %76, align 8
  %78 = getelementptr inbounds nuw i8, ptr %5, i64 24
  %79 = load ptr, ptr %78, align 8
  %80 = icmp eq ptr %79, null
  br i1 %80, label %.loopexit, label %.preheader.i56

.preheader.i56:                                   ; preds = %75
  %81 = getelementptr inbounds nuw i8, ptr %5, i64 8
  %82 = load i32, ptr %81, align 8
  %83 = icmp sgt i32 %82, 0
  br i1 %83, label %.lr.ph.preheader.i58, label %.loopexit

.lr.ph.preheader.i58:                             ; preds = %.preheader.i56
  %wide.trip.count.i59 = zext nneg i32 %82 to i64
  br label %.lr.ph.i60

.lr.ph.i60:                                       ; preds = %107, %.lr.ph.preheader.i58
  %indvars.iv.i61 = phi i64 [ 0, %.lr.ph.preheader.i58 ], [ %indvars.iv.next.i63, %107 ]
  %84 = getelementptr inbounds nuw ptr, ptr %79, i64 %indvars.iv.i61
  %85 = load ptr, ptr %84, align 8
  %.not.i62 = icmp eq ptr %85, null
  br i1 %.not.i62, label %107, label %86

86:                                               ; preds = %.lr.ph.i60
  %87 = tail call i32 @strcmp(ptr noundef nonnull dereferenceable(1) %85, ptr noundef nonnull readonly dereferenceable(1) %.042) #13
  %88 = icmp eq i32 %87, 0
  br i1 %88, label %89, label %107

89:                                               ; preds = %86
  %90 = trunc nuw nsw i64 %indvars.iv.i61 to i32
  %91 = add nuw nsw i32 %90, 1
  %92 = tail call noundef ptr @palloc0(i64 noundef 28) #11
  store i32 8, ptr %92, align 4
  %93 = getelementptr inbounds nuw i8, ptr %92, i64 4
  store i32 0, ptr %93, align 4
  %94 = getelementptr inbounds nuw i8, ptr %92, i64 8
  store i32 %91, ptr %94, align 4
  %95 = getelementptr inbounds nuw i8, ptr %5, i64 16
  %96 = load ptr, ptr %95, align 8
  %97 = getelementptr inbounds nuw i32, ptr %96, i64 %indvars.iv.i61
  %98 = load i32, ptr %97, align 4
  %99 = getelementptr inbounds nuw i8, ptr %92, i64 12
  store i32 %98, ptr %99, align 4
  %100 = getelementptr inbounds nuw i8, ptr %92, i64 16
  store i32 -1, ptr %100, align 4
  %101 = tail call i32 @get_typcollation(i32 noundef %98) #11
  %102 = getelementptr inbounds nuw i8, ptr %92, i64 20
  store i32 %101, ptr %102, align 4
  %103 = getelementptr inbounds nuw i8, ptr %92, i64 24
  store i32 %77, ptr %103, align 4
  %104 = getelementptr inbounds nuw i8, ptr %5, i64 32
  %105 = load i32, ptr %104, align 8
  %.not.i.i65 = icmp eq i32 %105, 0
  %.not15.i.i66 = icmp eq i32 %101, 0
  %or.cond.i.i67 = select i1 %.not.i.i65, i1 true, i1 %.not15.i.i66
  br i1 %or.cond.i.i67, label %sql_fn_resolve_param_name.exit68.thread92, label %106

106:                                              ; preds = %89
  store i32 %105, ptr %102, align 4
  br label %sql_fn_resolve_param_name.exit68.thread92

107:                                              ; preds = %86, %.lr.ph.i60
  %indvars.iv.next.i63 = add nuw nsw i64 %indvars.iv.i61, 1
  %exitcond.not.i64 = icmp eq i64 %indvars.iv.next.i63, %wide.trip.count.i59
  br i1 %exitcond.not.i64, label %.loopexit, label %.lr.ph.i60, !llvm.loop !8

.loopexit:                                        ; preds = %107, %75, %.preheader.i56
  %108 = tail call fastcc ptr @sql_fn_resolve_param_name(ptr noundef nonnull %5, ptr noundef nonnull %23, i32 noundef %77)
  br label %sql_fn_resolve_param_name.exit68

109:                                              ; preds = %30, %71
  %110 = getelementptr inbounds nuw i8, ptr %1, i64 16
  %111 = load i32, ptr %110, align 8
  %112 = getelementptr inbounds nuw i8, ptr %5, i64 24
  %113 = load ptr, ptr %112, align 8
  %114 = icmp eq ptr %113, null
  br i1 %114, label %sql_fn_resolve_param_name.exit68.thread92, label %.preheader.i69

.preheader.i69:                                   ; preds = %109
  %115 = getelementptr inbounds nuw i8, ptr %5, i64 8
  %116 = load i32, ptr %115, align 8
  %117 = icmp sgt i32 %116, 0
  br i1 %117, label %.lr.ph.preheader.i71, label %sql_fn_resolve_param_name.exit68.thread92

.lr.ph.preheader.i71:                             ; preds = %.preheader.i69
  %wide.trip.count.i72 = zext nneg i32 %116 to i64
  br label %.lr.ph.i73

.lr.ph.i73:                                       ; preds = %141, %.lr.ph.preheader.i71
  %indvars.iv.i74 = phi i64 [ 0, %.lr.ph.preheader.i71 ], [ %indvars.iv.next.i76, %141 ]
  %118 = getelementptr inbounds nuw ptr, ptr %113, i64 %indvars.iv.i74
  %119 = load ptr, ptr %118, align 8
  %.not.i75 = icmp eq ptr %119, null
  br i1 %.not.i75, label %141, label %120

120:                                              ; preds = %.lr.ph.i73
  %121 = tail call i32 @strcmp(ptr noundef nonnull dereferenceable(1) %119, ptr noundef nonnull readonly dereferenceable(1) %23) #13
  %122 = icmp eq i32 %121, 0
  br i1 %122, label %123, label %141

123:                                              ; preds = %120
  %124 = trunc nuw nsw i64 %indvars.iv.i74 to i32
  %125 = add nuw nsw i32 %124, 1
  %126 = tail call noundef ptr @palloc0(i64 noundef 28) #11
  store i32 8, ptr %126, align 4
  %127 = getelementptr inbounds nuw i8, ptr %126, i64 4
  store i32 0, ptr %127, align 4
  %128 = getelementptr inbounds nuw i8, ptr %126, i64 8
  store i32 %125, ptr %128, align 4
  %129 = getelementptr inbounds nuw i8, ptr %5, i64 16
  %130 = load ptr, ptr %129, align 8
  %131 = getelementptr inbounds nuw i32, ptr %130, i64 %indvars.iv.i74
  %132 = load i32, ptr %131, align 4
  %133 = getelementptr inbounds nuw i8, ptr %126, i64 12
  store i32 %132, ptr %133, align 4
  %134 = getelementptr inbounds nuw i8, ptr %126, i64 16
  store i32 -1, ptr %134, align 4
  %135 = tail call i32 @get_typcollation(i32 noundef %132) #11
  %136 = getelementptr inbounds nuw i8, ptr %126, i64 20
  store i32 %135, ptr %136, align 4
  %137 = getelementptr inbounds nuw i8, ptr %126, i64 24
  store i32 %111, ptr %137, align 4
  %138 = getelementptr inbounds nuw i8, ptr %5, i64 32
  %139 = load i32, ptr %138, align 8
  %.not.i.i78 = icmp eq i32 %139, 0
  %.not15.i.i79 = icmp eq i32 %135, 0
  %or.cond.i.i80 = select i1 %.not.i.i78, i1 true, i1 %.not15.i.i79
  br i1 %or.cond.i.i80, label %sql_fn_resolve_param_name.exit68.thread85, label %140

140:                                              ; preds = %123
  store i32 %139, ptr %136, align 4
  br label %sql_fn_resolve_param_name.exit68.thread85

141:                                              ; preds = %120, %.lr.ph.i73
  %indvars.iv.next.i76 = add nuw nsw i64 %indvars.iv.i74, 1
  %exitcond.not.i77 = icmp eq i64 %indvars.iv.next.i76, %wide.trip.count.i72
  br i1 %exitcond.not.i77, label %sql_fn_resolve_param_name.exit68.thread92, label %.lr.ph.i73, !llvm.loop !8

sql_fn_resolve_param_name.exit68:                 ; preds = %.loopexit, %sql_fn_resolve_param_name.exit
  %.144 = phi ptr [ %70, %sql_fn_resolve_param_name.exit ], [ %.043, %.loopexit ]
  %.041 = phi ptr [ %.012.i, %sql_fn_resolve_param_name.exit ], [ %108, %.loopexit ]
  %.not49 = icmp eq ptr %.041, null
  br i1 %.not49, label %sql_fn_resolve_param_name.exit68.thread92, label %sql_fn_resolve_param_name.exit68.thread85

sql_fn_resolve_param_name.exit68.thread85:        ; preds = %140, %123, %sql_fn_resolve_param_name.exit68
  %.04190 = phi ptr [ %.041, %sql_fn_resolve_param_name.exit68 ], [ %126, %140 ], [ %126, %123 ]
  %.14489 = phi ptr [ %.144, %sql_fn_resolve_param_name.exit68 ], [ %.043, %140 ], [ %.043, %123 ]
  %.not50 = icmp eq ptr %.14489, null
  br i1 %.not50, label %sql_fn_resolve_param_name.exit68.thread92, label %142

142:                                              ; preds = %sql_fn_resolve_param_name.exit68.thread85
  %143 = tail call ptr @list_make1_impl(i32 noundef 1, ptr nonnull %.14489) #11
  %144 = tail call ptr @list_make1_impl(i32 noundef 1, ptr nonnull %.04190) #11
  %145 = getelementptr inbounds nuw i8, ptr %0, i64 192
  %146 = load ptr, ptr %145, align 8
  %147 = getelementptr inbounds nuw i8, ptr %1, i64 16
  %148 = load i32, ptr %147, align 8
  %149 = tail call ptr @ParseFuncOrColumn(ptr noundef %0, ptr noundef %143, ptr noundef %144, ptr noundef %146, ptr noundef null, i1 noundef zeroext false, i32 noundef %148) #11
  br label %sql_fn_resolve_param_name.exit68.thread92

sql_fn_resolve_param_name.exit68.thread92:        ; preds = %141, %89, %106, %.preheader.i69, %109, %sql_fn_resolve_param_name.exit68.thread85, %142, %sql_fn_resolve_param_name.exit68, %31, %list_length.exit, %3
  %.0 = phi ptr [ null, %3 ], [ null, %list_length.exit ], [ null, %31 ], [ null, %sql_fn_resolve_param_name.exit68 ], [ %149, %142 ], [ %.04190, %sql_fn_resolve_param_name.exit68.thread85 ], [ null, %109 ], [ null, %.preheader.i69 ], [ %92, %106 ], [ %92, %89 ], [ null, %141 ]
  ret ptr %.0
}